target datalayout = "e-m:e-p270:32:32-p271:32:32-p272:64:64-i64:64-i128:128-f80:128-n8:16:32:64-S128"
target triple = "x86_64-pc-linux-gnu"

%"class.pxrInternal_v0_24__pxrReserved__::Hf_PluginEntry" = type <{ %"class.pxrInternal_v0_24__pxrReserved__::TfType", %"class.std::__cxx11::basic_string", i32, [4 x i8], ptr, i32, [4 x i8] }>
%"class.pxrInternal_v0_24__pxrReserved__::TfType" = type { ptr }
%"class.std::__cxx11::basic_string" = type { %"struct.std::__cxx11::basic_string<char>::_Alloc_hider", i64, %union.anon }
%"struct.std::__cxx11::basic_string<char>::_Alloc_hider" = type { ptr }
%union.anon = type { i64, [8 x i8] }

; Function Attrs: mustprogress nounwind uwtable
define void @_ZN32pxrInternal_v0_24__pxrReserved__14Hf_PluginEntryC2EOS0_(ptr noundef nonnull align 8 dereferenceable(64) %0, ptr noundef nonnull align 8 dereferenceable(64) %1) unnamed_addr #3 align 2 {
  %3 = alloca ptr, align 8
  %4 = alloca ptr, align 8
  store ptr %0, ptr %3, align 8
  store ptr %1, ptr %4, align 8
  %5 = load ptr, ptr %3, align 8
  %6 = getelementptr inbounds nuw %"class.pxrInternal_v0_24__pxrReserved__::Hf_PluginEntry", ptr %5, i32 0, i32 0
  %7 = load ptr, ptr %4, align 8
  %8 = getelementptr inbounds nuw %"class.pxrInternal_v0_24__pxrReserved__::Hf_PluginEntry", ptr %7, i32 0, i32 0
  call void @llvm.memcpy.p0.p0.i64(ptr align 8 %6, ptr align 8 %8, i64 8, i1 false)
  %9 = getelementptr inbounds nuw %"class.pxrInternal_v0_24__pxrReserved__::Hf_PluginEntry", ptr %5, i32 0, i32 1
  %10 = load ptr, ptr %4, align 8
  %11 = getelementptr inbounds nuw %"class.pxrInternal_v0_24__pxrReserved__::Hf_PluginEntry", ptr %10, i32 0, i32 1
  call void @_ZNSt7__cxx1112basic_stringIcSt11char_traitsIcESaIcEEC1EOS4_(ptr noundef nonnull align 8 dereferenceable(32) %9, ptr noundef nonnull align 8 dereferenceable(32) %11) #11
  %12 = getelementptr inbounds nuw %"class.pxrInternal_v0_24__pxrReserved__::Hf_PluginEntry", ptr %5, i32 0, i32 2
  %13 = load ptr, ptr %4, align 8
  %14 = getelementptr inbounds nuw %"class.pxrInternal_v0_24__pxrReserved__::Hf_PluginEntry", ptr %13, i32 0, i32 2
  %15 = load i32, ptr %14, align 8
  store i32 %15, ptr %12, align 8
  %16 = getelementptr inbounds nuw %"class.pxrInternal_v0_24__pxrReserved__::Hf_PluginEntry", ptr %5, i32 0, i32 4
  %17 = load ptr, ptr %4, align 8
  %18 = getelementptr inbounds nuw %"class.pxrInternal_v0_24__pxrReserved__::Hf_PluginEntry", ptr %17, i32 0, i32 4
  %19 = load ptr, ptr %18, align 8
  store ptr %19, ptr %16, align 8
  %20 = getelementptr inbounds nuw %"class.pxrInternal_v0_24__pxrReserved__::Hf_PluginEntry", ptr %5, i32 0, i32 5
  %21 = load ptr, ptr %4, align 8
  %22 = getelementptr inbounds nuw %"class.pxrInternal_v0_24__pxrReserved__::Hf_PluginEntry", ptr %21, i32 0, i32 5
  %23 = load i32, ptr %22, align 8
  store i32 %23, ptr %20, align 8
  ret void
}